target datalayout = "e-m:e-p270:32:32-p271:32:32-p272:64:64-i64:64-i128:128-f80:128-n8:16:32:64-S128"
target triple = "x86_64-pc-linux-gnu"

%struct.option = type { i32, i32, ptr, ptr, ptr, ptr, i32, ptr, i64, ptr, i64, ptr }

@.str.8 = private unnamed_addr constant [1 x i8] zeroinitializer, align 1
@git_gettext_enabled = external global i32, align 4
@.str.10 = private unnamed_addr constant [8 x i8] c"dry-run\00", align 1
@.str.11 = private unnamed_addr constant [34 x i8] c"do not actually prune any entries\00", align 1
@.str.12 = private unnamed_addr constant [8 x i8] c"rewrite\00", align 1
@.str.13 = private unnamed_addr constant [73 x i8] c"rewrite the old SHA1 with the new SHA1 of the entry that now precedes it\00", align 1
@.str.14 = private unnamed_addr constant [10 x i8] c"updateref\00", align 1
@.str.15 = private unnamed_addr constant [58 x i8] c"update the reference to the value of the top reflog entry\00", align 1
@.str.16 = private unnamed_addr constant [8 x i8] c"verbose\00", align 1
@.str.17 = private unnamed_addr constant [34 x i8] c"print extra information on screen\00", align 1
@reflog_delete_usage = internal constant [2 x ptr] [ptr @.str.40, ptr null], align 16
@.str.39 = private unnamed_addr constant [30 x i8] c"no reflog specified to delete\00", align 1

; Function Attrs: inlinehint nounwind uwtable
define internal i32 @const_error() #4 {
  ret i32 -1
}

; Function Attrs: inlinehint nounwind uwtable
define internal ptr @_(ptr noundef %0) #4 {
  %2 = alloca ptr, align 8
  %3 = alloca ptr, align 8
  store ptr %0, ptr %3, align 8, !tbaa !11
  %4 = load ptr, ptr %3, align 8, !tbaa !11
  %5 = load i8, ptr %4, align 1, !tbaa !68
  %6 = icmp ne i8 %5, 0
  br i1 %6, label %8, label %7

7:                                                ; preds = %1
  store ptr @.str.8, ptr %2, align 8
  br label %16

8:                                                ; preds = %1
  %9 = load i32, ptr @git_gettext_enabled, align 4, !tbaa !4
  %10 = icmp ne i32 %9, 0
  br i1 %10, label %13, label %11

11:                                               ; preds = %8
  %12 = load ptr, ptr %3, align 8, !tbaa !11
  store ptr %12, ptr %2, align 8
  br label %16

13:                                               ; preds = %8
  %14 = load ptr, ptr %3, align 8, !tbaa !11
  %15 = call ptr @dcgettext(ptr noundef null, ptr noundef %14, i32 noundef 5) #9
  store ptr %15, ptr %2, align 8
  br label %16

16:                                               ; preds = %13, %11, %7
  %17 = load ptr, ptr %2, align 8
  ret ptr %17
}

; Function Attrs: nounwind uwtable
define internal i32 @cmd_reflog_delete(i32 noundef %0, ptr noundef %1, ptr noundef %2, ptr noundef %3) #0 {
  %5 = alloca i32, align 4
  %6 = alloca i32, align 4
  %7 = alloca ptr, align 8
  %8 = alloca ptr, align 8
  %9 = alloca ptr, align 8
  %10 = alloca i32, align 4
  %11 = alloca i32, align 4
  %12 = alloca i32, align 4
  %13 = alloca i32, align 4
  %14 = alloca [5 x %struct.option], align 16
  %15 = alloca i32, align 4
  store i32 %0, ptr %6, align 4, !tbaa !4
  store ptr %1, ptr %7, align 8, !tbaa !8
  store ptr %2, ptr %8, align 8, !tbaa !11
  store ptr %3, ptr %9, align 8, !tbaa !13
  call void @llvm.lifetime.start.p0(i64 4, ptr %10) #9
  call void @llvm.lifetime.start.p0(i64 4, ptr %11) #9
  store i32 0, ptr %11, align 4, !tbaa !4
  call void @llvm.lifetime.start.p0(i64 4, ptr %12) #9
  store i32 0, ptr %12, align 4, !tbaa !4
  call void @llvm.lifetime.start.p0(i64 4, ptr %13) #9
  store i32 0, ptr %13, align 4, !tbaa !4
  call void @llvm.lifetime.start.p0(i64 440, ptr %14) #9
  %16 = getelementptr inbounds nuw %struct.option, ptr %14, i32 0, i32 0
  store i32 5, ptr %16, align 8, !tbaa !16
  %17 = getelementptr inbounds nuw %struct.option, ptr %14, i32 0, i32 1
  store i32 110, ptr %17, align 4, !tbaa !19
  %18 = getelementptr inbounds nuw %struct.option, ptr %14, i32 0, i32 2
  store ptr @.str.10, ptr %18, align 8, !tbaa !20
  %19 = getelementptr inbounds nuw %struct.option, ptr %14, i32 0, i32 3
  store ptr %12, ptr %19, align 8, !tbaa !21
  %20 = getelementptr inbounds nuw %struct.option, ptr %14, i32 0, i32 4
  store ptr null, ptr %20, align 8, !tbaa !22
  %21 = getelementptr inbounds nuw %struct.option, ptr %14, i32 0, i32 5
  store ptr @.str.11, ptr %21, align 8, !tbaa !23
  %22 = getelementptr inbounds nuw %struct.option, ptr %14, i32 0, i32 6
  store i32 2, ptr %22, align 8, !tbaa !24
  %23 = getelementptr i8, ptr %14, i64 44
  call void @llvm.memset.p0.i64(ptr align 4 %23, i8 0, i64 4, i1 false)
  %24 = getelementptr inbounds nuw %struct.option, ptr %14, i32 0, i32 7
  store ptr null, ptr %24, align 8, !tbaa !25
  %25 = getelementptr inbounds nuw %struct.option, ptr %14, i32 0, i32 8
  store i64 1, ptr %25, align 8, !tbaa !26
  %26 = getelementptr inbounds nuw %struct.option, ptr %14, i32 0, i32 9
  store ptr null, ptr %26, align 8, !tbaa !27
  %27 = getelementptr inbounds nuw %struct.option, ptr %14, i32 0, i32 10
  store i64 0, ptr %27, align 8, !tbaa !28
  %28 = getelementptr inbounds nuw %struct.option, ptr %14, i32 0, i32 11
  store ptr null, ptr %28, align 8, !tbaa !29
  %29 = getelementptr inbounds %struct.option, ptr %14, i64 1
  %30 = getelementptr inbounds nuw %struct.option, ptr %29, i32 0, i32 0
  store i32 5, ptr %30, align 8, !tbaa !16
  %31 = getelementptr inbounds nuw %struct.option, ptr %29, i32 0, i32 1
  store i32 0, ptr %31, align 4, !tbaa !19
  %32 = getelementptr inbounds nuw %struct.option, ptr %29, i32 0, i32 2
  store ptr @.str.12, ptr %32, align 8, !tbaa !20
  %33 = getelementptr inbounds nuw %struct.option, ptr %29, i32 0, i32 3
  store ptr %12, ptr %33, align 8, !tbaa !21
  %34 = getelementptr inbounds nuw %struct.option, ptr %29, i32 0, i32 4
  store ptr null, ptr %34, align 8, !tbaa !22
  %35 = getelementptr inbounds nuw %struct.option, ptr %29, i32 0, i32 5
  store ptr @.str.13, ptr %35, align 8, !tbaa !23
  %36 = getelementptr inbounds nuw %struct.option, ptr %29, i32 0, i32 6
  store i32 2, ptr %36, align 8, !tbaa !24
  %37 = getelementptr i8, ptr %29, i64 44
  call void @llvm.memset.p0.i64(ptr align 4 %37, i8 0, i64 4, i1 false)
  %38 = getelementptr inbounds nuw %struct.option, ptr %29, i32 0, i32 7
  store ptr null, ptr %38, align 8, !tbaa !25
  %39 = getelementptr inbounds nuw %struct.option, ptr %29, i32 0, i32 8
  store i64 4, ptr %39, align 8, !tbaa !26
  %40 = getelementptr inbounds nuw %struct.option, ptr %29, i32 0, i32 9
  store ptr null, ptr %40, align 8, !tbaa !27
  %41 = getelementptr inbounds nuw %struct.option, ptr %29, i32 0, i32 10
  store i64 0, ptr %41, align 8, !tbaa !28
  %42 = getelementptr inbounds nuw %struct.option, ptr %29, i32 0, i32 11
  store ptr null, ptr %42, align 8, !tbaa !29
  %43 = getelementptr inbounds %struct.option, ptr %14, i64 2
  %44 = getelementptr inbounds nuw %struct.option, ptr %43, i32 0, i32 0
  store i32 5, ptr %44, align 8, !tbaa !16
  %45 = getelementptr inbounds nuw %struct.option, ptr %43, i32 0, i32 1
  store i32 0, ptr %45, align 4, !tbaa !19
  %46 = getelementptr inbounds nuw %struct.option, ptr %43, i32 0, i32 2
  store ptr @.str.14, ptr %46, align 8, !tbaa !20
  %47 = getelementptr inbounds nuw %struct.option, ptr %43, i32 0, i32 3
  store ptr %12, ptr %47, align 8, !tbaa !21
  %48 = getelementptr inbounds nuw %struct.option, ptr %43, i32 0, i32 4
  store ptr null, ptr %48, align 8, !tbaa !22
  %49 = getelementptr inbounds nuw %struct.option, ptr %43, i32 0, i32 5
  store ptr @.str.15, ptr %49, align 8, !tbaa !23
  %50 = getelementptr inbounds nuw %struct.option, ptr %43, i32 0, i32 6
  store i32 2, ptr %50, align 8, !tbaa !24
  %51 = getelementptr i8, ptr %43, i64 44
  call void @llvm.memset.p0.i64(ptr align 4 %51, i8 0, i64 4, i1 false)
  %52 = getelementptr inbounds nuw %struct.option, ptr %43, i32 0, i32 7
  store ptr null, ptr %52, align 8, !tbaa !25
  %53 = getelementptr inbounds nuw %struct.option, ptr %43, i32 0, i32 8
  store i64 2, ptr %53, align 8, !tbaa !26
  %54 = getelementptr inbounds nuw %struct.option, ptr %43, i32 0, i32 9
  store ptr null, ptr %54, align 8, !tbaa !27
  %55 = getelementptr inbounds nuw %struct.option, ptr %43, i32 0, i32 10
  store i64 0, ptr %55, align 8, !tbaa !28
  %56 = getelementptr inbounds nuw %struct.option, ptr %43, i32 0, i32 11
  store ptr null, ptr %56, align 8, !tbaa !29
  %57 = getelementptr inbounds %struct.option, ptr %14, i64 3
  %58 = getelementptr inbounds nuw %struct.option, ptr %57, i32 0, i32 0
  store i32 9, ptr %58, align 8, !tbaa !16
  %59 = getelementptr inbounds nuw %struct.option, ptr %57, i32 0, i32 1
  store i32 0, ptr %59, align 4, !tbaa !19
  %60 = getelementptr inbounds nuw %struct.option, ptr %57, i32 0, i32 2
  store ptr @.str.16, ptr %60, align 8, !tbaa !20
  %61 = getelementptr inbounds nuw %struct.option, ptr %57, i32 0, i32 3
  store ptr %13, ptr %61, align 8, !tbaa !21
  %62 = getelementptr inbounds nuw %struct.option, ptr %57, i32 0, i32 4
  store ptr null, ptr %62, align 8, !tbaa !22
  %63 = getelementptr inbounds nuw %struct.option, ptr %57, i32 0, i32 5
  store ptr @.str.17, ptr %63, align 8, !tbaa !23
  %64 = getelementptr inbounds nuw %struct.option, ptr %57, i32 0, i32 6
  store i32 2, ptr %64, align 8, !tbaa !24
  %65 = getelementptr i8, ptr %57, i64 44
  call void @llvm.memset.p0.i64(ptr align 4 %65, i8 0, i64 4, i1 false)
  %66 = getelementptr inbounds nuw %struct.option, ptr %57, i32 0, i32 7
  store ptr null, ptr %66, align 8, !tbaa !25
  %67 = getelementptr inbounds nuw %struct.option, ptr %57, i32 0, i32 8
  store i64 1, ptr %67, align 8, !tbaa !26
  %68 = getelementptr inbounds nuw %struct.option, ptr %57, i32 0, i32 9
  store ptr null, ptr %68, align 8, !tbaa !27
  %69 = getelementptr inbounds nuw %struct.option, ptr %57, i32 0, i32 10
  store i64 0, ptr %69, align 8, !tbaa !28
  %70 = getelementptr inbounds nuw %struct.option, ptr %57, i32 0, i32 11
  store ptr null, ptr %70, align 8, !tbaa !29
  %71 = getelementptr inbounds %struct.option, ptr %14, i64 4
  call void @llvm.memset.p0.i64(ptr align 8 %71, i8 0, i64 88, i1 false)
  %72 = getelementptr inbounds nuw %struct.option, ptr %71, i32 0, i32 0
  store i32 0, ptr %72, align 8, !tbaa !16
  %73 = load i32, ptr %6, align 4, !tbaa !4
  %74 = load ptr, ptr %7, align 8, !tbaa !8
  %75 = load ptr, ptr %8, align 8, !tbaa !11
  %76 = getelementptr inbounds [5 x %struct.option], ptr %14, i64 0, i64 0
  %77 = call i32 @parse_options(i32 noundef %73, ptr noundef %74, ptr noundef %75, ptr noundef %76, ptr noundef @reflog_delete_usage, i32 noundef 0)
  store i32 %77, ptr %6, align 4, !tbaa !4
  %78 = load i32, ptr %6, align 4, !tbaa !4
  %79 = icmp slt i32 %78, 1
  br i1 %79, label %80, label %84

80:                                               ; preds = %4
  %81 = call ptr @_(ptr noundef @.str.39)
  %82 = call i32 (ptr, ...) @error(ptr noundef %81)
  %83 = call i32 @const_error()
  store i32 %83, ptr %5, align 4
  store i32 1, ptr %15, align 4
  br label %105

84:                                               ; preds = %4
  store i32 0, ptr %10, align 4, !tbaa !4
  br label %85

85:                                               ; preds = %100, %84
  %86 = load i32, ptr %10, align 4, !tbaa !4
  %87 = load i32, ptr %6, align 4, !tbaa !4
  %88 = icmp slt i32 %86, %87
  br i1 %88, label %89, label %103

89:                                               ; preds = %85
  %90 = load ptr, ptr %7, align 8, !tbaa !8
  %91 = load i32, ptr %10, align 4, !tbaa !4
  %92 = sext i32 %91 to i64
  %93 = getelementptr inbounds ptr, ptr %90, i64 %92
  %94 = load ptr, ptr %93, align 8, !tbaa !11
  %95 = load i32, ptr %12, align 4, !tbaa !4
  %96 = load i32, ptr %13, align 4, !tbaa !4
  %97 = call i32 @reflog_delete(ptr noundef %94, i32 noundef %95, i32 noundef %96)
  %98 = load i32, ptr %11, align 4, !tbaa !4
  %99 = or i32 %98, %97
  store i32 %99, ptr %11, align 4, !tbaa !4
  br label %100

100:                                              ; preds = %89
  %101 = load i32, ptr %10, align 4, !tbaa !4
  %102 = add nsw i32 %101, 1
  store i32 %102, ptr %10, align 4, !tbaa !4
  br label %85, !llvm.loop !67

103:                                              ; preds = %85
  %104 = load i32, ptr %11, align 4, !tbaa !4
  store i32 %104, ptr %5, align 4
  store i32 1, ptr %15, align 4
  br label %105

105:                                              ; preds = %103, %80
  call void @llvm.lifetime.end.p0(i64 440, ptr %14) #9
  call void @llvm.lifetime.end.p0(i64 4, ptr %13) #9
  call void @llvm.lifetime.end.p0(i64 4, ptr %12) #9
  call void @llvm.lifetime.end.p0(i64 4, ptr %11) #9
  call void @llvm.lifetime.end.p0(i64 4, ptr %10) #9
  %106 = load i32, ptr %5, align 4
  ret i32 %106
}