; Function Attrs: nounwind uwtable
define internal i32 @cmd_reflog_delete(i32 noundef %0, ptr noundef %1, ptr noundef %2, ptr readnone captures(none) %3) #0 {
  %5 = alloca i32, align 4
  %6 = alloca i32, align 4
  %7 = alloca [5 x %struct.option], align 16
  call void @llvm.lifetime.start.p0(i64 4, ptr nonnull %5) #13
  store i32 0, ptr %5, align 4, !tbaa !19
  call void @llvm.lifetime.start.p0(i64 4, ptr nonnull %6) #13
  store i32 0, ptr %6, align 4, !tbaa !19
  call void @llvm.lifetime.start.p0(i64 440, ptr nonnull %7) #13
  store i32 5, ptr %7, align 16, !tbaa !8
  %8 = getelementptr inbounds nuw i8, ptr %7, i64 4
  store i32 110, ptr %8, align 4, !tbaa !13
  %9 = getelementptr inbounds nuw i8, ptr %7, i64 8
  store ptr @.str.10, ptr %9, align 8, !tbaa !14
  %10 = getelementptr inbounds nuw i8, ptr %7, i64 16
  store ptr %5, ptr %10, align 16, !tbaa !15
  %11 = getelementptr inbounds nuw i8, ptr %7, i64 24
  store ptr null, ptr %11, align 8, !tbaa !23
  %12 = getelementptr inbounds nuw i8, ptr %7, i64 32
  store ptr @.str.11, ptr %12, align 16, !tbaa !24
  %13 = getelementptr inbounds nuw i8, ptr %7, i64 40
  store i32 2, ptr %13, align 8, !tbaa !25
  %14 = getelementptr inbounds nuw i8, ptr %7, i64 44
  store i32 0, ptr %14, align 4
  %15 = getelementptr inbounds nuw i8, ptr %7, i64 48
  store ptr null, ptr %15, align 16, !tbaa !26
  %16 = getelementptr inbounds nuw i8, ptr %7, i64 56
  store i64 1, ptr %16, align 8, !tbaa !27
  %17 = getelementptr inbounds nuw i8, ptr %7, i64 64
  %18 = getelementptr inbounds nuw i8, ptr %7, i64 88
  call void @llvm.memset.p0.i64(ptr noundef nonnull align 16 dereferenceable(24) %17, i8 0, i64 24, i1 false)
  store i32 5, ptr %18, align 8, !tbaa !8
  %19 = getelementptr inbounds nuw i8, ptr %7, i64 92
  store i32 0, ptr %19, align 4, !tbaa !13
  %20 = getelementptr inbounds nuw i8, ptr %7, i64 96
  store ptr @.str.12, ptr %20, align 16, !tbaa !14
  %21 = getelementptr inbounds nuw i8, ptr %7, i64 104
  store ptr %5, ptr %21, align 8, !tbaa !15
  %22 = getelementptr inbounds nuw i8, ptr %7, i64 112
  store ptr null, ptr %22, align 16, !tbaa !23
  %23 = getelementptr inbounds nuw i8, ptr %7, i64 120
  store ptr @.str.13, ptr %23, align 8, !tbaa !24
  %24 = getelementptr inbounds nuw i8, ptr %7, i64 128
  store i32 2, ptr %24, align 16, !tbaa !25
  %25 = getelementptr inbounds nuw i8, ptr %7, i64 132
  store i32 0, ptr %25, align 4
  %26 = getelementptr inbounds nuw i8, ptr %7, i64 136
  store ptr null, ptr %26, align 8, !tbaa !26
  %27 = getelementptr inbounds nuw i8, ptr %7, i64 144
  store i64 4, ptr %27, align 16, !tbaa !27
  %28 = getelementptr inbounds nuw i8, ptr %7, i64 152
  %29 = getelementptr inbounds nuw i8, ptr %7, i64 176
  call void @llvm.memset.p0.i64(ptr noundef nonnull align 8 dereferenceable(24) %28, i8 0, i64 24, i1 false)
  store i32 5, ptr %29, align 16, !tbaa !8
  %30 = getelementptr inbounds nuw i8, ptr %7, i64 180
  store i32 0, ptr %30, align 4, !tbaa !13
  %31 = getelementptr inbounds nuw i8, ptr %7, i64 184
  store ptr @.str.14, ptr %31, align 8, !tbaa !14
  %32 = getelementptr inbounds nuw i8, ptr %7, i64 192
  store ptr %5, ptr %32, align 16, !tbaa !15
  %33 = getelementptr inbounds nuw i8, ptr %7, i64 200
  store ptr null, ptr %33, align 8, !tbaa !23
  %34 = getelementptr inbounds nuw i8, ptr %7, i64 208
  store ptr @.str.15, ptr %34, align 16, !tbaa !24
  %35 = getelementptr inbounds nuw i8, ptr %7, i64 216
  store i32 2, ptr %35, align 8, !tbaa !25
  %36 = getelementptr inbounds nuw i8, ptr %7, i64 220
  store i32 0, ptr %36, align 4
  %37 = getelementptr inbounds nuw i8, ptr %7, i64 224
  store ptr null, ptr %37, align 16, !tbaa !26
  %38 = getelementptr inbounds nuw i8, ptr %7, i64 232
  store i64 2, ptr %38, align 8, !tbaa !27
  %39 = getelementptr inbounds nuw i8, ptr %7, i64 240
  %40 = getelementptr inbounds nuw i8, ptr %7, i64 264
  call void @llvm.memset.p0.i64(ptr noundef nonnull align 16 dereferenceable(24) %39, i8 0, i64 24, i1 false)
  store i32 9, ptr %40, align 8, !tbaa !8
  %41 = getelementptr inbounds nuw i8, ptr %7, i64 268
  store i32 0, ptr %41, align 4, !tbaa !13
  %42 = getelementptr inbounds nuw i8, ptr %7, i64 272
  store ptr @.str.16, ptr %42, align 16, !tbaa !14
  %43 = getelementptr inbounds nuw i8, ptr %7, i64 280
  store ptr %6, ptr %43, align 8, !tbaa !15
  %44 = getelementptr inbounds nuw i8, ptr %7, i64 288
  store ptr null, ptr %44, align 16, !tbaa !23
  %45 = getelementptr inbounds nuw i8, ptr %7, i64 296
  store ptr @.str.17, ptr %45, align 8, !tbaa !24
  %46 = getelementptr inbounds nuw i8, ptr %7, i64 304
  store i32 2, ptr %46, align 16, !tbaa !25
  %47 = getelementptr inbounds nuw i8, ptr %7, i64 308
  store i32 0, ptr %47, align 4
  %48 = getelementptr inbounds nuw i8, ptr %7, i64 312
  store ptr null, ptr %48, align 8, !tbaa !26
  %49 = getelementptr inbounds nuw i8, ptr %7, i64 320
  store i64 1, ptr %49, align 16, !tbaa !27
  %50 = getelementptr inbounds nuw i8, ptr %7, i64 328
  call void @llvm.memset.p0.i64(ptr noundef nonnull align 8 dereferenceable(112) %50, i8 0, i64 112, i1 false)
  %51 = call i32 @parse_options(i32 noundef %0, ptr noundef %1, ptr noundef %2, ptr noundef nonnull %7, ptr noundef nonnull @reflog_delete_usage, i32 noundef 0) #13
  %52 = icmp slt i32 %51, 1
  br i1 %52, label %53, label %.preheader.preheader

.preheader.preheader:                             ; preds = %4
  %wide.trip.count = zext nneg i32 %51 to i64
  br label %.preheader

53:                                               ; preds = %4
  %54 = load i32, ptr @git_gettext_enabled, align 4, !tbaa !19
  %.not4.i = icmp eq i32 %54, 0
  br i1 %.not4.i, label %_.exit, label %55

55:                                               ; preds = %53
  %56 = call ptr @dcgettext(ptr noundef null, ptr noundef nonnull @.str.39, i32 noundef 5) #13
  br label %_.exit

_.exit:                                           ; preds = %53, %55
  %.0.i = phi ptr [ %56, %55 ], [ @.str.39, %53 ]
  %57 = call i32 (ptr, ...) @error(ptr noundef %.0.i) #13
  br label %.loopexit

.preheader:                                       ; preds = %.preheader.preheader, %.preheader
  %indvars.iv = phi i64 [ 0, %.preheader.preheader ], [ %indvars.iv.next, %.preheader ]
  %.015 = phi i32 [ 0, %.preheader.preheader ], [ %63, %.preheader ]
  %58 = getelementptr inbounds nuw ptr, ptr %1, i64 %indvars.iv
  %59 = load ptr, ptr %58, align 8, !tbaa !20
  %60 = load i32, ptr %5, align 4, !tbaa !19
  %61 = load i32, ptr %6, align 4, !tbaa !19
  %62 = call i32 @reflog_delete(ptr noundef %59, i32 noundef %60, i32 noundef %61) #13
  %63 = or i32 %62, %.015
  %indvars.iv.next = add nuw nsw i64 %indvars.iv, 1
  %exitcond.not = icmp eq i64 %indvars.iv.next, %wide.trip.count
  br i1 %exitcond.not, label %.loopexit, label %.preheader, !llvm.loop !56

.loopexit:                                        ; preds = %.preheader, %_.exit
  %.012 = phi i32 [ -1, %_.exit ], [ %63, %.preheader ]
  call void @llvm.lifetime.end.p0(i64 440, ptr nonnull %7) #13
  call void @llvm.lifetime.end.p0(i64 4, ptr nonnull %6) #13
  call void @llvm.lifetime.end.p0(i64 4, ptr nonnull %5) #13
  ret i32 %.012
}